target datalayout = "e-m:e-p270:32:32-p271:32:32-p272:64:64-i64:64-i128:128-f80:128-n8:16:32:64-S128"
target triple = "x86_64-pc-linux-gnu"

%struct.mpd_context_t = type { i64, i64, i64, i32, i32, i32, i32, i32, i32 }
%struct.mpd_t = type { i8, i64, i64, i64, i64, ptr }

@MPD_MINALLOC = external hidden global i64, align 8

; Function Attrs: alwaysinline nounwind uwtable
define hidden i32 @mpd_isstatic_data(ptr noundef %0) #1 {
  %2 = alloca ptr, align 8
  store ptr %0, ptr %2, align 8, !tbaa !7
  %3 = load ptr, ptr %2, align 8, !tbaa !7
  %4 = getelementptr inbounds nuw %struct.mpd_t, ptr %3, i32 0, i32 0
  %5 = load i8, ptr %4, align 8, !tbaa !25
  %6 = zext i8 %5 to i32
  %7 = and i32 %6, 32
  ret i32 %7
}

; Function Attrs: alwaysinline nounwind uwtable
define hidden void @mpd_set_positive(ptr noundef %0) #1 {
  %2 = alloca ptr, align 8
  store ptr %0, ptr %2, align 8, !tbaa !7
  %3 = load ptr, ptr %2, align 8, !tbaa !7
  %4 = getelementptr inbounds nuw %struct.mpd_t, ptr %3, i32 0, i32 0
  %5 = load i8, ptr %4, align 8, !tbaa !25
  %6 = zext i8 %5 to i32
  %7 = and i32 %6, -2
  %8 = trunc i32 %7 to i8
  store i8 %8, ptr %4, align 8, !tbaa !25
  ret void
}

; Function Attrs: alwaysinline nounwind uwtable
define hidden void @mpd_set_qnan(ptr noundef %0) #1 {
  %2 = alloca ptr, align 8
  store ptr %0, ptr %2, align 8, !tbaa !7
  %3 = load ptr, ptr %2, align 8, !tbaa !7
  %4 = getelementptr inbounds nuw %struct.mpd_t, ptr %3, i32 0, i32 0
  %5 = load i8, ptr %4, align 8, !tbaa !25
  %6 = zext i8 %5 to i32
  %7 = and i32 %6, -15
  %8 = trunc i32 %7 to i8
  store i8 %8, ptr %4, align 8, !tbaa !25
  %9 = load ptr, ptr %2, align 8, !tbaa !7
  %10 = getelementptr inbounds nuw %struct.mpd_t, ptr %9, i32 0, i32 0
  %11 = load i8, ptr %10, align 8, !tbaa !25
  %12 = zext i8 %11 to i32
  %13 = or i32 %12, 4
  %14 = trunc i32 %13 to i8
  store i8 %14, ptr %10, align 8, !tbaa !25
  ret void
}

; Function Attrs: alwaysinline nounwind uwtable
define hidden void @mpd_minalloc(ptr noundef %0) #1 {
  %2 = alloca ptr, align 8
  %3 = alloca i8, align 1
  store ptr %0, ptr %2, align 8, !tbaa !7
  %4 = load ptr, ptr %2, align 8, !tbaa !7
  %5 = call i32 @mpd_isstatic_data(ptr noundef %4)
  %6 = icmp ne i32 %5, 0
  br i1 %6, label %28, label %7

7:                                                ; preds = %1
  %8 = load ptr, ptr %2, align 8, !tbaa !7
  %9 = getelementptr inbounds nuw %struct.mpd_t, ptr %8, i32 0, i32 4
  %10 = load i64, ptr %9, align 8, !tbaa !31
  %11 = load i64, ptr @MPD_MINALLOC, align 8, !tbaa !3
  %12 = icmp sgt i64 %10, %11
  br i1 %12, label %13, label %28

13:                                               ; preds = %7
  call void @llvm.lifetime.start.p0(i64 1, ptr %3) #10
  store i8 0, ptr %3, align 1, !tbaa !32
  %14 = load ptr, ptr %2, align 8, !tbaa !7
  %15 = getelementptr inbounds nuw %struct.mpd_t, ptr %14, i32 0, i32 5
  %16 = load ptr, ptr %15, align 8, !tbaa !21
  %17 = load i64, ptr @MPD_MINALLOC, align 8, !tbaa !3
  %18 = call ptr @mpd_realloc(ptr noundef %16, i64 noundef %17, i64 noundef 8, ptr noundef %3)
  %19 = load ptr, ptr %2, align 8, !tbaa !7
  %20 = getelementptr inbounds nuw %struct.mpd_t, ptr %19, i32 0, i32 5
  store ptr %18, ptr %20, align 8, !tbaa !21
  %21 = load i8, ptr %3, align 1, !tbaa !32
  %22 = icmp ne i8 %21, 0
  br i1 %22, label %27, label %23

23:                                               ; preds = %13
  %24 = load i64, ptr @MPD_MINALLOC, align 8, !tbaa !3
  %25 = load ptr, ptr %2, align 8, !tbaa !7
  %26 = getelementptr inbounds nuw %struct.mpd_t, ptr %25, i32 0, i32 4
  store i64 %24, ptr %26, align 8, !tbaa !31
  br label %27

27:                                               ; preds = %23, %13
  call void @llvm.lifetime.end.p0(i64 1, ptr %3) #10
  br label %28

28:                                               ; preds = %27, %7, %1
  ret void
}

; Function Attrs: alwaysinline nounwind uwtable
define hidden void @mpd_copy_flags(ptr noundef %0, ptr noundef %1) #1 {
  %3 = alloca ptr, align 8
  %4 = alloca ptr, align 8
  %5 = alloca i8, align 1
  store ptr %0, ptr %3, align 8, !tbaa !7
  store ptr %1, ptr %4, align 8, !tbaa !7
  call void @llvm.lifetime.start.p0(i64 1, ptr %5) #10
  %6 = load ptr, ptr %4, align 8, !tbaa !7
  %7 = getelementptr inbounds nuw %struct.mpd_t, ptr %6, i32 0, i32 0
  %8 = load i8, ptr %7, align 8, !tbaa !25
  store i8 %8, ptr %5, align 1, !tbaa !32
  %9 = load ptr, ptr %3, align 8, !tbaa !7
  %10 = getelementptr inbounds nuw %struct.mpd_t, ptr %9, i32 0, i32 0
  %11 = load i8, ptr %10, align 8, !tbaa !25
  %12 = zext i8 %11 to i32
  %13 = and i32 %12, 240
  %14 = trunc i32 %13 to i8
  store i8 %14, ptr %10, align 8, !tbaa !25
  %15 = load i8, ptr %5, align 1, !tbaa !32
  %16 = zext i8 %15 to i32
  %17 = and i32 %16, -241
  %18 = load ptr, ptr %3, align 8, !tbaa !7
  %19 = getelementptr inbounds nuw %struct.mpd_t, ptr %18, i32 0, i32 0
  %20 = load i8, ptr %19, align 8, !tbaa !25
  %21 = zext i8 %20 to i32
  %22 = or i32 %21, %17
  %23 = trunc i32 %22 to i8
  store i8 %23, ptr %19, align 8, !tbaa !25
  call void @llvm.lifetime.end.p0(i64 1, ptr %5) #10
  ret void
}

; Function Attrs: alwaysinline nounwind uwtable
define hidden i32 @mpd_qresize(ptr noundef %0, i64 noundef %1, ptr noundef %2) #1 {
  %4 = alloca i32, align 4
  %5 = alloca ptr, align 8
  %6 = alloca i64, align 8
  %7 = alloca ptr, align 8
  store ptr %0, ptr %5, align 8, !tbaa !7
  store i64 %1, ptr %6, align 8, !tbaa !3
  store ptr %2, ptr %7, align 8, !tbaa !29
  %8 = load i64, ptr %6, align 8, !tbaa !3
  %9 = load i64, ptr @MPD_MINALLOC, align 8, !tbaa !3
  %10 = icmp sle i64 %8, %9
  br i1 %10, label %11, label %13

11:                                               ; preds = %3
  %12 = load i64, ptr @MPD_MINALLOC, align 8, !tbaa !3
  br label %15

13:                                               ; preds = %3
  %14 = load i64, ptr %6, align 8, !tbaa !3
  br label %15

15:                                               ; preds = %13, %11
  %16 = phi i64 [ %12, %11 ], [ %14, %13 ]
  store i64 %16, ptr %6, align 8, !tbaa !3
  %17 = load i64, ptr %6, align 8, !tbaa !3
  %18 = load ptr, ptr %5, align 8, !tbaa !7
  %19 = getelementptr inbounds nuw %struct.mpd_t, ptr %18, i32 0, i32 4
  %20 = load i64, ptr %19, align 8, !tbaa !31
  %21 = icmp eq i64 %17, %20
  br i1 %21, label %22, label %23

22:                                               ; preds = %15
  store i32 1, ptr %4, align 4
  br label %44

23:                                               ; preds = %15
  %24 = load ptr, ptr %5, align 8, !tbaa !7
  %25 = call i32 @mpd_isstatic_data(ptr noundef %24)
  %26 = icmp ne i32 %25, 0
  br i1 %26, label %27, label %39

27:                                               ; preds = %23
  %28 = load i64, ptr %6, align 8, !tbaa !3
  %29 = load ptr, ptr %5, align 8, !tbaa !7
  %30 = getelementptr inbounds nuw %struct.mpd_t, ptr %29, i32 0, i32 4
  %31 = load i64, ptr %30, align 8, !tbaa !31
  %32 = icmp sgt i64 %28, %31
  br i1 %32, label %33, label %38

33:                                               ; preds = %27
  %34 = load ptr, ptr %5, align 8, !tbaa !7
  %35 = load i64, ptr %6, align 8, !tbaa !3
  %36 = load ptr, ptr %7, align 8, !tbaa !29
  %37 = call i32 @mpd_switch_to_dyn(ptr noundef %34, i64 noundef %35, ptr noundef %36)
  store i32 %37, ptr %4, align 4
  br label %44

38:                                               ; preds = %27
  store i32 1, ptr %4, align 4
  br label %44

39:                                               ; preds = %23
  %40 = load ptr, ptr %5, align 8, !tbaa !7
  %41 = load i64, ptr %6, align 8, !tbaa !3
  %42 = load ptr, ptr %7, align 8, !tbaa !29
  %43 = call i32 @mpd_realloc_dyn(ptr noundef %40, i64 noundef %41, ptr noundef %42)
  store i32 %43, ptr %4, align 4
  br label %44

44:                                               ; preds = %39, %38, %33, %22
  %45 = load i32, ptr %4, align 4
  ret i32 %45
}

; Function Attrs: nounwind uwtable
define hidden void @mpd_seterror(ptr noundef %0, i32 noundef %1, ptr noundef %2) #0 {
  %4 = alloca ptr, align 8
  %5 = alloca i32, align 4
  %6 = alloca ptr, align 8
  store ptr %0, ptr %4, align 8, !tbaa !7
  store i32 %1, ptr %5, align 4, !tbaa !23
  store ptr %2, ptr %6, align 8, !tbaa !29
  %7 = load ptr, ptr %4, align 8, !tbaa !7
  call void @mpd_minalloc(ptr noundef %7)
  %8 = load ptr, ptr %4, align 8, !tbaa !7
  call void @mpd_set_qnan(ptr noundef %8)
  %9 = load ptr, ptr %4, align 8, !tbaa !7
  call void @mpd_set_positive(ptr noundef %9)
  %10 = load ptr, ptr %4, align 8, !tbaa !7
  %11 = getelementptr inbounds nuw %struct.mpd_t, ptr %10, i32 0, i32 3
  store i64 0, ptr %11, align 8, !tbaa !22
  %12 = load ptr, ptr %4, align 8, !tbaa !7
  %13 = getelementptr inbounds nuw %struct.mpd_t, ptr %12, i32 0, i32 2
  store i64 0, ptr %13, align 8, !tbaa !13
  %14 = load ptr, ptr %4, align 8, !tbaa !7
  %15 = getelementptr inbounds nuw %struct.mpd_t, ptr %14, i32 0, i32 1
  store i64 0, ptr %15, align 8, !tbaa !10
  %16 = load i32, ptr %5, align 4, !tbaa !23
  %17 = load ptr, ptr %6, align 8, !tbaa !29
  %18 = load i32, ptr %17, align 4, !tbaa !23
  %19 = or i32 %18, %16
  store i32 %19, ptr %17, align 4, !tbaa !23
  ret void
}

; Function Attrs: nounwind uwtable
define hidden i32 @mpd_qcopy(ptr noundef %0, ptr noundef %1, ptr noundef %2) #0 {
  %4 = alloca i32, align 4
  %5 = alloca ptr, align 8
  %6 = alloca ptr, align 8
  %7 = alloca ptr, align 8
  store ptr %0, ptr %5, align 8, !tbaa !7
  store ptr %1, ptr %6, align 8, !tbaa !7
  store ptr %2, ptr %7, align 8, !tbaa !29
  %8 = load ptr, ptr %5, align 8, !tbaa !7
  %9 = load ptr, ptr %6, align 8, !tbaa !7
  %10 = icmp eq ptr %8, %9
  br i1 %10, label %11, label %12

11:                                               ; preds = %3
  store i32 1, ptr %4, align 4
  br label %49

12:                                               ; preds = %3
  %13 = load ptr, ptr %5, align 8, !tbaa !7
  %14 = load ptr, ptr %6, align 8, !tbaa !7
  %15 = getelementptr inbounds nuw %struct.mpd_t, ptr %14, i32 0, i32 3
  %16 = load i64, ptr %15, align 8, !tbaa !22
  %17 = load ptr, ptr %7, align 8, !tbaa !29
  %18 = call i32 @mpd_qresize(ptr noundef %13, i64 noundef %16, ptr noundef %17)
  %19 = icmp ne i32 %18, 0
  br i1 %19, label %21, label %20

20:                                               ; preds = %12
  store i32 0, ptr %4, align 4
  br label %49

21:                                               ; preds = %12
  %22 = load ptr, ptr %5, align 8, !tbaa !7
  %23 = load ptr, ptr %6, align 8, !tbaa !7
  call void @mpd_copy_flags(ptr noundef %22, ptr noundef %23)
  %24 = load ptr, ptr %6, align 8, !tbaa !7
  %25 = getelementptr inbounds nuw %struct.mpd_t, ptr %24, i32 0, i32 1
  %26 = load i64, ptr %25, align 8, !tbaa !10
  %27 = load ptr, ptr %5, align 8, !tbaa !7
  %28 = getelementptr inbounds nuw %struct.mpd_t, ptr %27, i32 0, i32 1
  store i64 %26, ptr %28, align 8, !tbaa !10
  %29 = load ptr, ptr %6, align 8, !tbaa !7
  %30 = getelementptr inbounds nuw %struct.mpd_t, ptr %29, i32 0, i32 2
  %31 = load i64, ptr %30, align 8, !tbaa !13
  %32 = load ptr, ptr %5, align 8, !tbaa !7
  %33 = getelementptr inbounds nuw %struct.mpd_t, ptr %32, i32 0, i32 2
  store i64 %31, ptr %33, align 8, !tbaa !13
  %34 = load ptr, ptr %6, align 8, !tbaa !7
  %35 = getelementptr inbounds nuw %struct.mpd_t, ptr %34, i32 0, i32 3
  %36 = load i64, ptr %35, align 8, !tbaa !22
  %37 = load ptr, ptr %5, align 8, !tbaa !7
  %38 = getelementptr inbounds nuw %struct.mpd_t, ptr %37, i32 0, i32 3
  store i64 %36, ptr %38, align 8, !tbaa !22
  %39 = load ptr, ptr %5, align 8, !tbaa !7
  %40 = getelementptr inbounds nuw %struct.mpd_t, ptr %39, i32 0, i32 5
  %41 = load ptr, ptr %40, align 8, !tbaa !21
  %42 = load ptr, ptr %6, align 8, !tbaa !7
  %43 = getelementptr inbounds nuw %struct.mpd_t, ptr %42, i32 0, i32 5
  %44 = load ptr, ptr %43, align 8, !tbaa !21
  %45 = load ptr, ptr %6, align 8, !tbaa !7
  %46 = getelementptr inbounds nuw %struct.mpd_t, ptr %45, i32 0, i32 3
  %47 = load i64, ptr %46, align 8, !tbaa !22
  %48 = mul i64 %47, 8
  call void @llvm.memcpy.p0.p0.i64(ptr align 8 %41, ptr align 8 %44, i64 %48, i1 false)
  store i32 1, ptr %4, align 4
  br label %49

49:                                               ; preds = %21, %20, %11
  %50 = load i32, ptr %4, align 4
  ret i32 %50
}

; Function Attrs: alwaysinline nounwind uwtable
define hidden i32 @mpd_isspecial(ptr noundef %0) #1 {
  %2 = alloca ptr, align 8
  store ptr %0, ptr %2, align 8, !tbaa !7
  %3 = load ptr, ptr %2, align 8, !tbaa !7
  %4 = getelementptr inbounds nuw %struct.mpd_t, ptr %3, i32 0, i32 0
  %5 = load i8, ptr %4, align 8, !tbaa !25
  %6 = zext i8 %5 to i32
  %7 = and i32 %6, 14
  ret i32 %7
}

; Function Attrs: nounwind uwtable
define hidden void @mpd_qshiftn(ptr noundef %0, ptr noundef %1, i64 noundef %2, ptr noundef %3, ptr noundef %4) #0 {
  %6 = alloca ptr, align 8
  %7 = alloca ptr, align 8
  %8 = alloca i64, align 8
  %9 = alloca ptr, align 8
  %10 = alloca ptr, align 8
  store ptr %0, ptr %6, align 8, !tbaa !7
  store ptr %1, ptr %7, align 8, !tbaa !7
  store i64 %2, ptr %8, align 8, !tbaa !3
  store ptr %3, ptr %9, align 8, !tbaa !14
  store ptr %4, ptr %10, align 8, !tbaa !29
  %11 = load ptr, ptr %7, align 8, !tbaa !7
  %12 = call i32 @mpd_isspecial(ptr noundef %11)
  %13 = icmp ne i32 %12, 0
  br i1 %13, label %14, label %27

14:                                               ; preds = %5
  %15 = load ptr, ptr %6, align 8, !tbaa !7
  %16 = load ptr, ptr %7, align 8, !tbaa !7
  %17 = load ptr, ptr %9, align 8, !tbaa !14
  %18 = load ptr, ptr %10, align 8, !tbaa !29
  %19 = call i32 @mpd_qcheck_nan(ptr noundef %15, ptr noundef %16, ptr noundef %17, ptr noundef %18)
  %20 = icmp ne i32 %19, 0
  br i1 %20, label %21, label %22

21:                                               ; preds = %14
  br label %72

22:                                               ; preds = %14
  %23 = load ptr, ptr %6, align 8, !tbaa !7
  %24 = load ptr, ptr %7, align 8, !tbaa !7
  %25 = load ptr, ptr %10, align 8, !tbaa !29
  %26 = call i32 @mpd_qcopy(ptr noundef %23, ptr noundef %24, ptr noundef %25)
  br label %72

27:                                               ; preds = %5
  %28 = load i64, ptr %8, align 8, !tbaa !3
  %29 = icmp sge i64 %28, 0
  br i1 %29, label %30, label %44

30:                                               ; preds = %27
  %31 = load i64, ptr %8, align 8, !tbaa !3
  %32 = load ptr, ptr %9, align 8, !tbaa !14
  %33 = getelementptr inbounds nuw %struct.mpd_context_t, ptr %32, i32 0, i32 0
  %34 = load i64, ptr %33, align 8, !tbaa !19
  %35 = icmp sle i64 %31, %34
  br i1 %35, label %36, label %44

36:                                               ; preds = %30
  %37 = load ptr, ptr %6, align 8, !tbaa !7
  %38 = load ptr, ptr %7, align 8, !tbaa !7
  %39 = load i64, ptr %8, align 8, !tbaa !3
  %40 = load ptr, ptr %10, align 8, !tbaa !29
  %41 = call i32 @mpd_qshiftl(ptr noundef %37, ptr noundef %38, i64 noundef %39, ptr noundef %40)
  %42 = load ptr, ptr %6, align 8, !tbaa !7
  %43 = load ptr, ptr %9, align 8, !tbaa !14
  call void @_mpd_cap(ptr noundef %42, ptr noundef %43)
  br label %72

44:                                               ; preds = %30, %27
  %45 = load i64, ptr %8, align 8, !tbaa !3
  %46 = icmp slt i64 %45, 0
  br i1 %46, label %47, label %68

47:                                               ; preds = %44
  %48 = load i64, ptr %8, align 8, !tbaa !3
  %49 = load ptr, ptr %9, align 8, !tbaa !14
  %50 = getelementptr inbounds nuw %struct.mpd_context_t, ptr %49, i32 0, i32 0
  %51 = load i64, ptr %50, align 8, !tbaa !19
  %52 = sub i64 0, %51
  %53 = icmp sge i64 %48, %52
  br i1 %53, label %54, label %68

54:                                               ; preds = %47
  %55 = load ptr, ptr %6, align 8, !tbaa !7
  %56 = load ptr, ptr %7, align 8, !tbaa !7
  %57 = load ptr, ptr %10, align 8, !tbaa !29
  %58 = call i32 @mpd_qcopy(ptr noundef %55, ptr noundef %56, ptr noundef %57)
  %59 = icmp ne i32 %58, 0
  br i1 %59, label %61, label %60

60:                                               ; preds = %54
  br label %72

61:                                               ; preds = %54
  %62 = load ptr, ptr %6, align 8, !tbaa !7
  %63 = load ptr, ptr %9, align 8, !tbaa !14
  call void @_mpd_cap(ptr noundef %62, ptr noundef %63)
  %64 = load ptr, ptr %6, align 8, !tbaa !7
  %65 = load i64, ptr %8, align 8, !tbaa !3
  %66 = sub i64 0, %65
  %67 = call i64 @mpd_qshiftr_inplace(ptr noundef %64, i64 noundef %66)
  br label %71

68:                                               ; preds = %47, %44
  %69 = load ptr, ptr %6, align 8, !tbaa !7
  %70 = load ptr, ptr %10, align 8, !tbaa !29
  call void @mpd_seterror(ptr noundef %69, i32 noundef 256, ptr noundef %70)
  br label %71

71:                                               ; preds = %68, %61
  br label %72

72:                                               ; preds = %21, %22, %60, %71, %36
  ret void
}