; Function Attrs: nounwind uwtable
define hidden void @mpd_qshiftn(ptr noundef %0, ptr noundef %1, i64 noundef %2, ptr noundef readonly captures(none) %3, ptr noundef %4) local_unnamed_addr #10 {
  %6 = alloca i8, align 1
  %7 = load i8, ptr %1, align 8, !tbaa !19
  %8 = and i8 %7, 14
  %.not = icmp eq i8 %8, 0
  br i1 %.not, label %47, label %9

9:                                                ; preds = %5
  %10 = tail call i32 @mpd_qcheck_nan(ptr noundef %0, ptr noundef nonnull %1, ptr noundef %3, ptr noundef %4)
  %.not31 = icmp ne i32 %10, 0
  %11 = icmp eq ptr %0, %1
  %or.cond = or i1 %11, %.not31
  br i1 %or.cond, label %mpd_qcopy.exit, label %12

12:                                               ; preds = %9
  %13 = getelementptr inbounds nuw i8, ptr %1, i64 24
  %14 = load i64, ptr %13, align 8, !tbaa !18
  %15 = load i64, ptr @MPD_MINALLOC, align 8, !tbaa !3
  %16 = tail call i64 @llvm.smax.i64(i64 %14, i64 %15)
  %17 = getelementptr inbounds nuw i8, ptr %0, i64 32
  %18 = load i64, ptr %17, align 8, !tbaa !21
  %19 = icmp eq i64 %16, %18
  %.pre20.i = load i8, ptr %0, align 8, !tbaa !19
  br i1 %19, label %mpd_qresize.exit.thread.i, label %20

20:                                               ; preds = %12
  %21 = and i8 %.pre20.i, 32
  %.not.i.i = icmp eq i8 %21, 0
  br i1 %.not.i.i, label %26, label %22

22:                                               ; preds = %20
  %23 = icmp sgt i64 %16, %18
  br i1 %23, label %24, label %mpd_qresize.exit.thread.i

24:                                               ; preds = %22
  %25 = tail call i32 @mpd_switch_to_dyn(ptr noundef nonnull %0, i64 noundef %16, ptr noundef %4) #33
  br label %mpd_qresize.exit.i

26:                                               ; preds = %20
  %27 = tail call i32 @mpd_realloc_dyn(ptr noundef nonnull %0, i64 noundef %16, ptr noundef %4) #33
  br label %mpd_qresize.exit.i

mpd_qresize.exit.i:                               ; preds = %26, %24
  %.0.i.i = phi i32 [ %25, %24 ], [ %27, %26 ]
  %.not.i = icmp eq i32 %.0.i.i, 0
  br i1 %.not.i, label %mpd_qcopy.exit, label %mpd_qresize.exit.mpd_qresize.exit.thread_crit_edge.i

mpd_qresize.exit.mpd_qresize.exit.thread_crit_edge.i: ; preds = %mpd_qresize.exit.i
  %.pre.i = load i8, ptr %0, align 8, !tbaa !19
  %.pre21.i = load i64, ptr %13, align 8, !tbaa !18
  br label %mpd_qresize.exit.thread.i

mpd_qresize.exit.thread.i:                        ; preds = %mpd_qresize.exit.mpd_qresize.exit.thread_crit_edge.i, %22, %12
  %28 = phi i64 [ %.pre21.i, %mpd_qresize.exit.mpd_qresize.exit.thread_crit_edge.i ], [ %14, %22 ], [ %14, %12 ]
  %29 = phi i8 [ %.pre.i, %mpd_qresize.exit.mpd_qresize.exit.thread_crit_edge.i ], [ %.pre20.i, %22 ], [ %.pre20.i, %12 ]
  %30 = load i8, ptr %1, align 8, !tbaa !19
  %31 = and i8 %29, -16
  %32 = and i8 %30, 15
  %33 = or disjoint i8 %32, %31
  store i8 %33, ptr %0, align 8, !tbaa !19
  %34 = getelementptr inbounds nuw i8, ptr %1, i64 8
  %35 = load i64, ptr %34, align 8, !tbaa !7
  %36 = getelementptr inbounds nuw i8, ptr %0, i64 8
  store i64 %35, ptr %36, align 8, !tbaa !7
  %37 = getelementptr inbounds nuw i8, ptr %1, i64 16
  %38 = load i64, ptr %37, align 8, !tbaa !11
  %39 = getelementptr inbounds nuw i8, ptr %0, i64 16
  store i64 %38, ptr %39, align 8, !tbaa !11
  %40 = getelementptr inbounds nuw i8, ptr %0, i64 24
  store i64 %28, ptr %40, align 8, !tbaa !18
  %41 = getelementptr inbounds nuw i8, ptr %0, i64 40
  %42 = load ptr, ptr %41, align 8, !tbaa !17
  %43 = getelementptr inbounds nuw i8, ptr %1, i64 40
  %44 = load ptr, ptr %43, align 8, !tbaa !17
  %45 = load i64, ptr %13, align 8, !tbaa !18
  %46 = shl i64 %45, 3
  tail call void @llvm.memcpy.p0.p0.i64(ptr align 8 %42, ptr align 8 %44, i64 %46, i1 false)
  br label %mpd_qcopy.exit

47:                                               ; preds = %5
  %48 = icmp sgt i64 %2, -1
  %49 = load i64, ptr %3, align 8, !tbaa !15
  br i1 %48, label %50, label %53

50:                                               ; preds = %47
  %.not28 = icmp sgt i64 %2, %49
  br i1 %.not28, label %95, label %51

51:                                               ; preds = %50
  %52 = tail call i32 @mpd_qshiftl(ptr noundef %0, ptr noundef nonnull %1, i64 noundef %2, ptr noundef %4)
  tail call fastcc void @_mpd_cap(ptr noundef %0, ptr noundef nonnull %3)
  br label %mpd_qcopy.exit

53:                                               ; preds = %47
  %54 = sub i64 0, %49
  %.not29 = icmp slt i64 %2, %54
  br i1 %.not29, label %95, label %55

55:                                               ; preds = %53
  %56 = icmp eq ptr %0, %1
  br i1 %56, label %92, label %57

57:                                               ; preds = %55
  %58 = getelementptr inbounds nuw i8, ptr %1, i64 24
  %59 = load i64, ptr %58, align 8, !tbaa !18
  %60 = load i64, ptr @MPD_MINALLOC, align 8, !tbaa !3
  %61 = tail call i64 @llvm.smax.i64(i64 %59, i64 %60)
  %62 = getelementptr inbounds nuw i8, ptr %0, i64 32
  %63 = load i64, ptr %62, align 8, !tbaa !21
  %64 = icmp eq i64 %61, %63
  %.pre20.i32 = load i8, ptr %0, align 8, !tbaa !19
  br i1 %64, label %mpd_qresize.exit.thread.i34, label %65

65:                                               ; preds = %57
  %66 = and i8 %.pre20.i32, 32
  %.not.i.i33 = icmp eq i8 %66, 0
  br i1 %.not.i.i33, label %71, label %67

67:                                               ; preds = %65
  %68 = icmp sgt i64 %61, %63
  br i1 %68, label %69, label %mpd_qresize.exit.thread.i34

69:                                               ; preds = %67
  %70 = tail call i32 @mpd_switch_to_dyn(ptr noundef nonnull %0, i64 noundef %61, ptr noundef %4) #33
  br label %mpd_qresize.exit.i36

71:                                               ; preds = %65
  %72 = tail call i32 @mpd_realloc_dyn(ptr noundef nonnull %0, i64 noundef %61, ptr noundef %4) #33
  br label %mpd_qresize.exit.i36

mpd_qresize.exit.i36:                             ; preds = %71, %69
  %.0.i.i37 = phi i32 [ %70, %69 ], [ %72, %71 ]
  %.not.i38 = icmp eq i32 %.0.i.i37, 0
  br i1 %.not.i38, label %mpd_qcopy.exit, label %mpd_qresize.exit.mpd_qresize.exit.thread_crit_edge.i39

mpd_qresize.exit.mpd_qresize.exit.thread_crit_edge.i39: ; preds = %mpd_qresize.exit.i36
  %.pre.i40 = load i8, ptr %0, align 8, !tbaa !19
  %.pre21.i41 = load i64, ptr %58, align 8, !tbaa !18
  %.pre = load i8, ptr %1, align 8, !tbaa !19
  br label %mpd_qresize.exit.thread.i34

mpd_qresize.exit.thread.i34:                      ; preds = %mpd_qresize.exit.mpd_qresize.exit.thread_crit_edge.i39, %67, %57
  %73 = phi i8 [ %.pre, %mpd_qresize.exit.mpd_qresize.exit.thread_crit_edge.i39 ], [ %7, %67 ], [ %7, %57 ]
  %74 = phi i64 [ %.pre21.i41, %mpd_qresize.exit.mpd_qresize.exit.thread_crit_edge.i39 ], [ %59, %67 ], [ %59, %57 ]
  %75 = phi i8 [ %.pre.i40, %mpd_qresize.exit.mpd_qresize.exit.thread_crit_edge.i39 ], [ %.pre20.i32, %67 ], [ %.pre20.i32, %57 ]
  %76 = and i8 %75, -16
  %77 = and i8 %73, 15
  %78 = or disjoint i8 %77, %76
  store i8 %78, ptr %0, align 8, !tbaa !19
  %79 = getelementptr inbounds nuw i8, ptr %1, i64 8
  %80 = load i64, ptr %79, align 8, !tbaa !7
  %81 = getelementptr inbounds nuw i8, ptr %0, i64 8
  store i64 %80, ptr %81, align 8, !tbaa !7
  %82 = getelementptr inbounds nuw i8, ptr %1, i64 16
  %83 = load i64, ptr %82, align 8, !tbaa !11
  %84 = getelementptr inbounds nuw i8, ptr %0, i64 16
  store i64 %83, ptr %84, align 8, !tbaa !11
  %85 = getelementptr inbounds nuw i8, ptr %0, i64 24
  store i64 %74, ptr %85, align 8, !tbaa !18
  %86 = getelementptr inbounds nuw i8, ptr %0, i64 40
  %87 = load ptr, ptr %86, align 8, !tbaa !17
  %88 = getelementptr inbounds nuw i8, ptr %1, i64 40
  %89 = load ptr, ptr %88, align 8, !tbaa !17
  %90 = load i64, ptr %58, align 8, !tbaa !18
  %91 = shl i64 %90, 3
  tail call void @llvm.memcpy.p0.p0.i64(ptr align 8 %87, ptr align 8 %89, i64 %91, i1 false)
  br label %92

92:                                               ; preds = %mpd_qresize.exit.thread.i34, %55
  tail call fastcc void @_mpd_cap(ptr noundef %0, ptr noundef nonnull %3)
  %93 = sub i64 0, %2
  %94 = tail call i64 @mpd_qshiftr_inplace(ptr noundef %0, i64 noundef %93)
  br label %mpd_qcopy.exit

95:                                               ; preds = %50, %53
  %96 = load i8, ptr %0, align 8, !tbaa !19
  %97 = and i8 %96, 32
  %.not.i.i43 = icmp eq i8 %97, 0
  br i1 %.not.i.i43, label %98, label %mpd_seterror.exit

98:                                               ; preds = %95
  %99 = getelementptr inbounds nuw i8, ptr %0, i64 32
  %100 = load i64, ptr %99, align 8, !tbaa !21
  %101 = load i64, ptr @MPD_MINALLOC, align 8, !tbaa !3
  %102 = icmp sgt i64 %100, %101
  br i1 %102, label %103, label %mpd_seterror.exit

103:                                              ; preds = %98
  call void @llvm.lifetime.start.p0(i64 1, ptr nonnull %6) #33
  store i8 0, ptr %6, align 1, !tbaa !22
  %104 = getelementptr inbounds nuw i8, ptr %0, i64 40
  %105 = load ptr, ptr %104, align 8, !tbaa !17
  %106 = call ptr @mpd_realloc(ptr noundef %105, i64 noundef %101, i64 noundef 8, ptr noundef nonnull %6) #33
  store ptr %106, ptr %104, align 8, !tbaa !17
  %107 = load i8, ptr %6, align 1, !tbaa !22
  %.not5.i.i = icmp eq i8 %107, 0
  br i1 %.not5.i.i, label %108, label %110

108:                                              ; preds = %103
  %109 = load i64, ptr @MPD_MINALLOC, align 8, !tbaa !3
  store i64 %109, ptr %99, align 8, !tbaa !21
  br label %110

110:                                              ; preds = %108, %103
  call void @llvm.lifetime.end.p0(i64 1, ptr nonnull %6) #33
  %.pre.i44 = load i8, ptr %0, align 8, !tbaa !19
  br label %mpd_seterror.exit

mpd_seterror.exit:                                ; preds = %95, %98, %110
  %111 = phi i8 [ %96, %95 ], [ %96, %98 ], [ %.pre.i44, %110 ]
  %112 = and i8 %111, -16
  %113 = or disjoint i8 %112, 4
  store i8 %113, ptr %0, align 8, !tbaa !19
  %114 = getelementptr inbounds nuw i8, ptr %0, i64 8
  call void @llvm.memset.p0.i64(ptr noundef nonnull align 8 dereferenceable(24) %114, i8 0, i64 24, i1 false)
  %115 = load i32, ptr %4, align 4, !tbaa !23
  %116 = or i32 %115, 256
  store i32 %116, ptr %4, align 4, !tbaa !23
  br label %mpd_qcopy.exit

mpd_qcopy.exit:                                   ; preds = %mpd_qresize.exit.i36, %mpd_qresize.exit.thread.i, %mpd_qresize.exit.i, %92, %mpd_seterror.exit, %9, %51
  ret void
}